; Function Attrs: nounwind uwtable
define noundef i32 @Abc_FrameSetLutLibraryTest(ptr noundef readnone captures(none) %0) local_unnamed_addr #0 {
  %2 = tail call ptr @If_LibLutReadString(ptr noundef nonnull @.str.8)
  %3 = icmp eq ptr %2, null
  br i1 %3, label %4, label %7

4:                                                ; preds = %1
  %5 = load ptr, ptr @stdout, align 8, !tbaa !27
  %6 = tail call i64 @fwrite(ptr nonnull @.str.7, i64 44, i64 1, ptr %5)
  br label %Abc_FrameSetLutLibrary.exit

7:                                                ; preds = %1
  %8 = tail call ptr (...) @Abc_FrameReadLibLut() #21
  %9 = icmp eq ptr %8, null
  br i1 %9, label %If_LibLutFree.exit.i, label %10

10:                                               ; preds = %7
  %11 = load ptr, ptr %8, align 8, !tbaa !32
  %.not.i.i = icmp eq ptr %11, null
  br i1 %.not.i.i, label %13, label %12

12:                                               ; preds = %10
  tail call void @free(ptr noundef nonnull %11) #21
  br label %13

13:                                               ; preds = %12, %10
  tail call void @free(ptr noundef nonnull %8) #21
  br label %If_LibLutFree.exit.i

If_LibLutFree.exit.i:                             ; preds = %13, %7
  tail call void @Abc_FrameSetLibLut(ptr noundef nonnull %2) #21
  br label %Abc_FrameSetLutLibrary.exit

Abc_FrameSetLutLibrary.exit:                      ; preds = %4, %If_LibLutFree.exit.i
  ret i32 1
}